(dp1
S'output'
p2
S"<type 'exceptions.AttributeError'> 'Table' object has no attribute 'name'"
p3
sS'layer'
p4
S'/home/nexus/documents/web2py-master/applications/GrantProposal/controllers/default.py'
p5
sS'code'
p6
S"# -*- coding: utf-8 -*-\n\nimport json\nfrom gluon.storage import Storage\n\ndef index():\n    if not auth.is_logged_in(): # more permission checking in the future\n        redirect(URL('user/login'))\n    return dict(locals())\n\ndef user():\n    form = auth()\n    return dict(locals())\n\ndef display_form():\n    form=FORM('Your name:', INPUT(_name='name'), INPUT(_type='submit'))\n    return dict(form=form)\n\ndef create_proposal():\n    if not auth.is_logged_in():\n        redirect(URL('user/login'))\n    #rows = list selected from proposal database\n    '''\n    rows = db(db.proposal.owner_ == auth.user.id).select(db.proposal.ALL).as_list()\n    if len(rows) > 0:\n        # fIXME For now, only one proposal is permitted for each user.\n        redirect(URL('index'))\n\n    if request.env.request_method == 'POST':\n        # We have multiple investigators, and the view writer can just set multiple input \n        #entry with name, say, 'first_name'. All inputs will form a Python list in the request object.\n        _vars = request.vars\n        _vars.owner_ = auth.user.id\n        _vars.investigators = json.dumps(zip(_vars.first_name or [], _vars.last_name or [], _vars.organization or [], _vars.email or []))\n        _vars.checklist = json.dumps([])\n        _vars = {\n                    (k, getattr(_vars, k)) \n                    for k in _vars if k in db.proposal.fields and k != 'id' \n                }\n        db.proposal.insert(**_vars)\n        redirect(URL('index'))\n\n        # Requires 'title', 'funding_agency', 'due_date' as strings.\n        # Optionally requires first_name, last_name, organization and email as investigator information.\n    '''\n    rows = db(db.proposal.owner_ == auth.user.id).select(db.proposal.ALL).as_list()\n    if len(rows) > 0:\n        # FIXME For now, only one proposal is permitted for each user.\n        redirect(URL('index'))\n    ''' \n    db.proposal.title == len(rows)\n    db.proposal.title.writable = False\n    '''\n    db.proposal.owner_ == auth.user.id        \n    db.proposal.owner_.writable = False\n    db.proposal.owner_.readable = False\n    db.proposal.checklist.writable= False\n    db.proposal.checklist.readable = False\n    create_proposal=SQLFORM(db.proposal, rows)\n    if create_proposal.process().accepted:\n        redirect(URL('index'))\n        response.flash = 'form accepted'\n    elif create_proposal.errors:\n        response.flash = 'form has errors'\n    else:\n        response.flash = 'please fill out the form'\n    return dict(create_proposal=create_proposal)\n\ndef update_proposal():\n    if not auth.is_logged_in():\n        redirect(URL('user/login'))\n\n    record = db(db.proposal.owner_ == auth.user.id).select(db.proposal.ALL)\n#    record = db.proposal(request.args(0)) or redirect(URL('index'))\n\n    update_proposal= SQLFORM(db.proposal, record)\n    if update_proposal.process().accepted:\n       response.flash = 'form accepted'\n    elif update_proposal.errors:\n       response.flash = 'form has errors'\n    return dict(update_proposal=update_proposal)\n\n'''\ndef update_proposal():\n    if not auth.is_logged_in():\n        redirect(URL('user/login'))\n\n\n    rows = db(db.proposal.owner_ == auth.user.id).select(db.proposal.ALL)\n    if len(rows) == 0:\n        redirect(URL('index'))\n    _vars = Storage(rows[0])\n\n    if request.env.request_method == 'POST':\n        _vars = request.vars\n        _vars.investigators = json.dumps(zip(_vars.first_name or [], _vars.last_name or [], _vars.organization or [], _vars.email or []))\n    _vars.checklist = json.dumps([])\n    _vars = { (k, getattr(_vars, k)) for k in _vars if k in db.proposal.fields and k != 'id' }\n  \n    db(db.proposal.id == row['id']).update(**_vars)\n    redirect(URL('index'))\n\n    investigators = json.loads(_vars.investigators)\n    s = set(json.loads(_vars.checklist))\n    _vars.checklist = s\n    _vars.investigators = None\n    _vars.first_name = [ x[0] for x in investigators ]\n    _vars.last_name = [ x[1] for x in investigators ]\n    _vars.organization = [ x[2] for x in investigators ]\n    _vars.email = [ x[3] for x in investigators ]\n\n    # The view writer needs vars for initial values.\n    # print(_vars) for details\n    return dict(_vars = _vars)\n'''\n\nresponse._vars=response._caller(update_proposal)\n"
p7
sS'snapshot'
p8
(dp9
sS'traceback'
p10
S'Traceback (most recent call last):\n  File "/home/nexus/documents/web2py-master/gluon/restricted.py", line 217, in restricted\n    exec ccode in environment\n  File "/home/nexus/documents/web2py-master/applications/GrantProposal/controllers/default.py", line 117, in <module>\n  File "/home/nexus/documents/web2py-master/gluon/globals.py", line 385, in <lambda>\n    self._caller = lambda f: f()\n  File "/home/nexus/documents/web2py-master/applications/GrantProposal/controllers/default.py", line 76, in update_proposal\n    update_proposal= SQLFORM(db.proposal, record)\n  File "/home/nexus/documents/web2py-master/gluon/sqlhtml.py", line 1151, in __init__\n    inp = self.widgets.options.widget(field, default)\n  File "/home/nexus/documents/web2py-master/gluon/sqlhtml.py", line 273, in widget\n    options = requires[0].options()\n  File "/home/nexus/documents/web2py-master/gluon/validators.py", line 559, in options\n    self.build_set()\n  File "/home/nexus/documents/web2py-master/gluon/validators.py", line 535, in build_set\n    fields = [table[k] for k in self.fields]\n  File "/home/nexus/documents/web2py-master/gluon/dal.py", line 8912, in __getitem__\n    return ogetattr(self, str(key))\nAttributeError: \'Table\' object has no attribute \'name\'\n'
p11
s.